; Function Attrs: mustprogress uwtable
define void @_ZN6icu_7512PluralFormatC2ERKS0_(ptr noundef nonnull align 8 dereferenceable(712) %this, ptr noundef nonnull align 8 dereferenceable(712) %other) unnamed_addr #1 align 2 personality ptr @__gxx_personality_v0 {
entry:
  %status.i = alloca i32, align 4
  tail call void @_ZN6icu_756FormatC2ERKS0_(ptr noundef nonnull align 8 dereferenceable(322) %this, ptr noundef nonnull align 8 dereferenceable(322) %other)
  store ptr getelementptr inbounds ({ [11 x ptr] }, ptr @_ZTVN6icu_7512PluralFormatE, i64 0, i32 0, i64 2), ptr %this, align 8
  %locale = getelementptr inbounds i8, ptr %this, i64 328
  %locale2 = getelementptr inbounds i8, ptr %other, i64 328
  invoke void @_ZN6icu_756LocaleC1ERKS0_(ptr noundef nonnull align 8 dereferenceable(217) %locale, ptr noundef nonnull align 8 dereferenceable(217) %locale2)
          to label %invoke.cont unwind label %lpad

invoke.cont:                                      ; preds = %entry
  %msgPattern = getelementptr inbounds i8, ptr %this, i64 552
  %msgPattern3 = getelementptr inbounds i8, ptr %other, i64 552
  invoke void @_ZN6icu_7514MessagePatternC1ERKS0_(ptr noundef nonnull align 8 dereferenceable(127) %msgPattern, ptr noundef nonnull align 8 dereferenceable(127) %msgPattern3)
          to label %if.end.i unwind label %lpad4

if.end.i:                                         ; preds = %invoke.cont
  %numberFormat = getelementptr inbounds i8, ptr %this, i64 680
  store ptr null, ptr %numberFormat, align 8
  %offset = getelementptr inbounds i8, ptr %this, i64 688
  %offset6 = getelementptr inbounds i8, ptr %other, i64 688
  %0 = load double, ptr %offset6, align 8
  store double %0, ptr %offset, align 8
  %pluralRulesWrapper = getelementptr inbounds i8, ptr %this, i64 696
  store ptr getelementptr inbounds ({ [5 x ptr] }, ptr @_ZTVN6icu_7512PluralFormat21PluralSelectorAdapterE, i64 0, i32 0, i64 2), ptr %pluralRulesWrapper, align 8
  %pluralRules.i = getelementptr inbounds i8, ptr %this, i64 704
  store ptr null, ptr %pluralRules.i, align 8
  call void @llvm.lifetime.start.p0(i64 4, ptr nonnull %status.i)
  store i32 0, ptr %status.i, align 4
  %numberFormat13.i = getelementptr inbounds i8, ptr %other, i64 680
  %1 = load ptr, ptr %numberFormat13.i, align 8
  %cmp14.i = icmp eq ptr %1, null
  br i1 %cmp14.i, label %if.then15.i, label %if.else.i

if.then15.i:                                      ; preds = %if.end.i
  %call.i8 = invoke noundef ptr @_ZN6icu_7512NumberFormat14createInstanceERKNS_6LocaleER10UErrorCode(ptr noundef nonnull align 8 dereferenceable(217) %locale, ptr noundef nonnull align 4 dereferenceable(4) %status.i)
          to label %if.end22.i unwind label %lpad9

if.else.i:                                        ; preds = %if.end.i
  %vtable18.i = load ptr, ptr %1, align 8
  %vfn19.i = getelementptr inbounds i8, ptr %vtable18.i, i64 32
  %2 = load ptr, ptr %vfn19.i, align 8
  %call20.i9 = invoke noundef ptr %2(ptr noundef nonnull align 8 dereferenceable(356) %1)
          to label %if.end22.i unwind label %lpad9

if.end22.i:                                       ; preds = %if.else.i, %if.then15.i
  %storemerge.i = phi ptr [ %call.i8, %if.then15.i ], [ %call20.i9, %if.else.i ]
  store ptr %storemerge.i, ptr %numberFormat, align 8
  %pluralRules24.i = getelementptr inbounds i8, ptr %other, i64 704
  %3 = load ptr, ptr %pluralRules24.i, align 8
  %cmp25.i = icmp eq ptr %3, null
  br i1 %cmp25.i, label %if.then26.i, label %if.else31.i

if.then26.i:                                      ; preds = %if.end22.i
  %call28.i10 = invoke noundef ptr @_ZN6icu_7511PluralRules9forLocaleERKNS_6LocaleER10UErrorCode(ptr noundef nonnull align 8 dereferenceable(217) %locale, ptr noundef nonnull align 4 dereferenceable(4) %status.i)
          to label %invoke.cont10 unwind label %lpad9

if.else31.i:                                      ; preds = %if.end22.i
  %call34.i11 = invoke noundef ptr @_ZNK6icu_7511PluralRules5cloneEv(ptr noundef nonnull align 8 dereferenceable(28) %3)
          to label %invoke.cont10 unwind label %lpad9

invoke.cont10:                                    ; preds = %if.then26.i, %if.else31.i
  %storemerge7.i = phi ptr [ %call28.i10, %if.then26.i ], [ %call34.i11, %if.else31.i ]
  store ptr %storemerge7.i, ptr %pluralRules.i, align 8
  call void @llvm.lifetime.end.p0(i64 4, ptr nonnull %status.i)
  ret void

lpad:                                             ; preds = %entry
  %4 = landingpad { ptr, i32 }
          cleanup
  br label %ehcleanup12

lpad4:                                            ; preds = %invoke.cont
  %5 = landingpad { ptr, i32 }
          cleanup
  br label %ehcleanup11

lpad9:                                            ; preds = %if.else31.i, %if.then26.i, %if.else.i, %if.then15.i
  %6 = landingpad { ptr, i32 }
          cleanup
  call void @_ZN6icu_7512PluralFormat21PluralSelectorAdapterD1Ev(ptr noundef nonnull align 8 dereferenceable(16) %pluralRulesWrapper) #15
  call void @_ZN6icu_7514MessagePatternD1Ev(ptr noundef nonnull align 8 dereferenceable(127) %msgPattern) #15
  br label %ehcleanup11

ehcleanup11:                                      ; preds = %lpad9, %lpad4
  %.pn = phi { ptr, i32 } [ %6, %lpad9 ], [ %5, %lpad4 ]
  call void @_ZN6icu_756LocaleD1Ev(ptr noundef nonnull align 8 dereferenceable(217) %locale) #15
  br label %ehcleanup12

ehcleanup12:                                      ; preds = %ehcleanup11, %lpad
  %.pn.pn = phi { ptr, i32 } [ %.pn, %ehcleanup11 ], [ %4, %lpad ]
  call void @_ZN6icu_756FormatD2Ev(ptr noundef nonnull align 8 dereferenceable(322) %this) #15
  resume { ptr, i32 } %.pn.pn
}